(dp0
S'postgres.products'
p1
(iViewDefinitions
view
p2
(dp3
S'col_map'
p4
(lp5
sS'name'
p6
g1
sS'cols'
p7
(lp8
S'productid'
p9
aS'name'
p10
aS'groupcode'
p11
aS'groupname'
p12
aS'isinstock'
p13
aS'fullprice'
p14
aS'asin'
p15
aS'nodeid'
p16
asS'cond'
p17
(dp18
sS'mapped_to'
p19
(lp20
sS'type'
p21
S'in_source'
p22
sbsS'postgres.orders'
p23
(iViewDefinitions
view
p24
(dp25
g4
(lp26
sg6
g23
sg7
(lp27
S'orderid'
p28
aS'customerid'
p29
aS'campaignid'
p30
aS'orderdate'
p31
aS'city'
p32
aS'state'
p33
aS'zipcode'
p34
aS'paymenttype'
p35
aS'totalprice'
p36
aS'numorderlines'
p37
aS'numunits'
p38
asg17
(dp39
sg19
(lp40
sg21
g22
sbsS'global_seasonal_view'
p41
(iViewDefinitions
view
p42
(dp43
g4
(lp44
(I0
I0
I0
tp45
a(I0
I1
I0
tp46
a(I1
I1
I1
tp47
a(I2
I1
I2
tp48
a(I3
I1
I3
tp49
a(I4
I1
I4
tp50
a(I5
I0
I5
tp51
a(I6
I0
I4
tp52
asg6
g41
sg7
(lp53
S'productid'
p54
aS'spring'
p55
aS'summer'
p56
aS'fall'
p57
aS'winter'
p58
aS'fullprice'
p59
aS'isinstock'
p60
asg17
(dp61
sg19
(lp62
g2
a(iViewDefinitions
view
p63
(dp64
g4
(lp65
sg6
S'postgres.seasonal_percentages'
p66
sg7
(lp67
S'productid'
p68
aS'spring'
p69
aS'summer'
p70
aS'fall'
p71
aS'winter'
p72
asg17
(dp73
sg19
(lp74
sg21
g22
sbasg21
S'in_global_view'
p75
sS'join_col_dict'
p76
(dp77
I0
(dp78
I0
S'yxwx'
p79
ssI1
(dp80
I0
g79
sssbsS'global_seasonal_view_cust'
p81
(iViewDefinitions
view
p82
(dp83
g4
(lp84
(I0
I0
I0
tp85
a(I1
I0
I1
tp86
a(I2
I0
I2
tp87
a(I3
I0
I3
tp88
a(I4
I0
I4
tp89
a(I5
I0
I5
tp90
a(I6
I0
I6
tp91
asg6
g81
sg7
(lp92
S'productid'
p93
aS'spring'
p94
aS'summer'
p95
aS'fall'
p96
aS'winter'
p97
aS'fullprice'
p98
aS'isinstock'
p99
asg17
(dp100
sg19
(lp101
g42
a(iViewDefinitions
view
p102
(dp103
g4
(lp104
sg6
S'postgres.customers'
p105
sg7
(lp106
S'customerid'
p107
aS'householdid'
p108
aS'gender'
p109
aS'firstname'
p110
asg17
(dp111
sg19
(lp112
sg21
g22
sbasg21
g75
sg76
(dp113
sbsg66
g63
sS'postgres.orderlines'
p114
(iViewDefinitions
view
p115
(dp116
g4
(lp117
sg6
g114
sg7
(lp118
S'orderlineid'
p119
aS'orderid'
p120
aS'productid'
p121
aS'shipdate'
p122
aS'billdate'
p123
aS'unitprice'
p124
aS'ol_numunits'
p125
aS'ol_totalprice'
p126
asg17
(dp127
sg19
(lp128
sg21
g22
sbsS'cust_prod'
p129
(iViewDefinitions
view
p130
(dp131
g4
(lp132
(I0
I0
I0
tp133
a(I0
I1
I1
tp134
a(I1
I2
I2
tp135
a(I1
I3
I0
tp136
a(I2
I3
I6
tp137
asg6
g129
sg7
(lp138
S'customerid'
p139
aS'productid'
p140
aS'asin'
p141
asg17
(dp142
sg19
(lp143
g102
ag24
ag115
ag2
asg21
g75
sg76
(dp144
I0
(dp145
I0
S'xwxx'
p146
ssI1
(dp147
I0
S'wzzw'
p148
sI1
g146
ssI2
(dp149
I1
g148
sI2
S'zxxy'
p150
ssI3
(dp151
I0
g150
sssbsg105
g102
s.